target datalayout = "e-m:e-p270:32:32-p271:32:32-p272:64:64-i64:64-i128:128-f80:128-n8:16:32:64-S128"
target triple = "x86_64-pc-linux-gnu"

%struct.archive_read = type { %struct.archive, ptr, i32, i64, i64, %struct.archive_read_client, [16 x %struct.archive_read_filter_bidder], ptr, i32, i64, i32, i32, [16 x %struct.archive_format_descriptor], ptr, ptr, ptr, %struct.anon }
%struct.archive = type { i32, i32, ptr, i32, ptr, i32, i32, ptr, %struct.archive_string, ptr, i32, i32, ptr, ptr, i64, i64, i64, i8, i64 }
%struct.archive_string = type { ptr, i64, i64 }
%struct.archive_read_client = type { ptr, ptr, ptr, ptr, ptr, ptr, i32, i32, i64, ptr }
%struct.archive_read_filter_bidder = type { ptr, ptr, ptr }
%struct.archive_format_descriptor = type { ptr, ptr, ptr, ptr, ptr, ptr, ptr, ptr, ptr, ptr, ptr }
%struct.anon = type { ptr, ptr, i32, ptr, ptr }
%struct.rar5 = type { i32, i32, i32, i32, i64, i64, %struct.generic_header, %struct.main_header, %struct.comp_state, %struct.file_header, %struct.bit_reader, %struct.multivolume, %struct.compressed_block_header, i32, i32 }
%struct.generic_header = type { i8, i32, i32 }
%struct.main_header = type { i8, i32 }
%struct.comp_state = type { i8, i32, i32, i32, i64, ptr, ptr, ptr, i64, i64, i64, i64, i64, i64, i32, %struct.decode_table, %struct.decode_table, %struct.decode_table, %struct.decode_table, %struct.decode_table, %struct.cdeque, i64, i64, [4 x i32], [2 x %struct.data_ready] }
%struct.decode_table = type { i32, [16 x i32], [16 x i32], i32, [1024 x i8], [1024 x i16], [306 x i16] }
%struct.cdeque = type { i16, i16, i16, i16, ptr }
%struct.data_ready = type { i8, ptr, i64, i64 }
%struct.file_header = type { i64, i64, i64, i64, i8, i64, i64, i64, i32, i32, i32, [32 x i8], %struct.blake2sp_state__, i8, i64, i64, i64 }
%struct.blake2sp_state__ = type { [8 x [1 x %struct.blake2s_state__]], [1 x %struct.blake2s_state__], [512 x i8], i64, i64 }
%struct.blake2s_state__ = type { [8 x i32], [2 x i32], [2 x i32], [64 x i8], i64, i64, i8 }
%struct.bit_reader = type { i8, i32 }
%struct.multivolume = type { i32, ptr }
%struct.compressed_block_header = type { i8, i8 }

@rar5_signature_xor = internal global [8 x i8] c"\F3\C0\D3\80\BB\A6\A0\A1", align 1
@.str.4 = private unnamed_addr constant [5 x i8] c"\7FELF\00", align 1
@.str.5 = private unnamed_addr constant [5 x i8] c"RAR5\00", align 1
@.str.6 = private unnamed_addr constant [29 x i8] c"Couldn't find out RAR header\00", align 1

; Function Attrs: nounwind uwtable
define internal void @rar5_signature(ptr noundef %0) #0 {
  %2 = alloca ptr, align 8
  %3 = alloca i64, align 8
  store ptr %0, ptr %2, align 8, !tbaa !33
  call void @llvm.lifetime.start.p0(i64 8, ptr %3) #11
  store i64 0, ptr %3, align 8, !tbaa !42
  br label %4

4:                                                ; preds = %17, %1
  %5 = load i64, ptr %3, align 8, !tbaa !42
  %6 = icmp ult i64 %5, 8
  br i1 %6, label %7, label %20

7:                                                ; preds = %4
  %8 = load i64, ptr %3, align 8, !tbaa !42
  %9 = getelementptr inbounds nuw [8 x i8], ptr @rar5_signature_xor, i64 0, i64 %8
  %10 = load i8, ptr %9, align 1, !tbaa !75
  %11 = zext i8 %10 to i32
  %12 = xor i32 %11, 161
  %13 = trunc i32 %12 to i8
  %14 = load ptr, ptr %2, align 8, !tbaa !33
  %15 = load i64, ptr %3, align 8, !tbaa !42
  %16 = getelementptr inbounds nuw i8, ptr %14, i64 %15
  store i8 %13, ptr %16, align 1, !tbaa !75
  br label %17

17:                                               ; preds = %7
  %18 = load i64, ptr %3, align 8, !tbaa !42
  %19 = add i64 %18, 1
  store i64 %19, ptr %3, align 8, !tbaa !42
  br label %4, !llvm.loop !78

20:                                               ; preds = %4
  call void @llvm.lifetime.end.p0(i64 8, ptr %3) #11
  ret void
}

; Function Attrs: nounwind uwtable
define internal i32 @consume(ptr noundef %0, i64 noundef %1) #0 {
  %3 = alloca ptr, align 8
  %4 = alloca i64, align 8
  %5 = alloca i32, align 4
  store ptr %0, ptr %3, align 8, !tbaa !13
  store i64 %1, ptr %4, align 8, !tbaa !42
  call void @llvm.lifetime.start.p0(i64 4, ptr %5) #11
  %6 = load i64, ptr %4, align 8, !tbaa !42
  %7 = load ptr, ptr %3, align 8, !tbaa !13
  %8 = load i64, ptr %4, align 8, !tbaa !42
  %9 = call i64 @__archive_read_consume(ptr noundef %7, i64 noundef %8)
  %10 = icmp eq i64 %6, %9
  %11 = select i1 %10, i32 0, i32 -30
  store i32 %11, ptr %5, align 4, !tbaa !9
  %12 = load i32, ptr %5, align 4, !tbaa !9
  call void @llvm.lifetime.end.p0(i64 4, ptr %5) #11
  ret i32 %12
}

; Function Attrs: nounwind uwtable
define internal i32 @try_skip_sfx(ptr noundef %0) #0 {
  %2 = alloca i32, align 4
  %3 = alloca ptr, align 8
  %4 = alloca ptr, align 8
  %5 = alloca i32, align 4
  %6 = alloca [8 x i8], align 1
  %7 = alloca ptr, align 8
  %8 = alloca ptr, align 8
  %9 = alloca i64, align 8
  %10 = alloca i64, align 8
  %11 = alloca i64, align 8
  %12 = alloca i64, align 8
  store ptr %0, ptr %3, align 8, !tbaa !13
  call void @llvm.lifetime.start.p0(i64 8, ptr %4) #11
  %13 = load ptr, ptr %3, align 8, !tbaa !13
  %14 = call ptr @__archive_read_ahead(ptr noundef %13, i64 noundef 7, ptr noundef null)
  store ptr %14, ptr %4, align 8, !tbaa !33
  %15 = icmp eq ptr %14, null
  br i1 %15, label %16, label %17

16:                                               ; preds = %1
  store i32 1, ptr %2, align 4
  store i32 1, ptr %5, align 4
  br label %104

17:                                               ; preds = %1
  %18 = load ptr, ptr %4, align 8, !tbaa !33
  %19 = getelementptr inbounds i8, ptr %18, i64 0
  %20 = load i8, ptr %19, align 1, !tbaa !75
  %21 = sext i8 %20 to i32
  %22 = icmp eq i32 %21, 77
  br i1 %22, label %23, label %29

23:                                               ; preds = %17
  %24 = load ptr, ptr %4, align 8, !tbaa !33
  %25 = getelementptr inbounds i8, ptr %24, i64 1
  %26 = load i8, ptr %25, align 1, !tbaa !75
  %27 = sext i8 %26 to i32
  %28 = icmp eq i32 %27, 90
  br i1 %28, label %33, label %29

29:                                               ; preds = %23, %17
  %30 = load ptr, ptr %4, align 8, !tbaa !33
  %31 = call i32 @memcmp(ptr noundef %30, ptr noundef @.str.4, i64 noundef 4) #13
  %32 = icmp eq i32 %31, 0
  br i1 %32, label %33, label %100

33:                                               ; preds = %29, %23
  call void @llvm.lifetime.start.p0(i64 8, ptr %6) #11
  call void @llvm.lifetime.start.p0(i64 8, ptr %7) #11
  call void @llvm.lifetime.start.p0(i64 8, ptr %8) #11
  call void @llvm.lifetime.start.p0(i64 8, ptr %9) #11
  call void @llvm.lifetime.start.p0(i64 8, ptr %10) #11
  store i64 0, ptr %10, align 8, !tbaa !42
  call void @llvm.lifetime.start.p0(i64 8, ptr %11) #11
  call void @llvm.lifetime.start.p0(i64 8, ptr %12) #11
  store i64 4096, ptr %12, align 8, !tbaa !42
  %34 = getelementptr inbounds [8 x i8], ptr %6, i64 0, i64 0
  call void @rar5_signature(ptr noundef %34)
  br label %35

35:                                               ; preds = %84, %52, %33
  %36 = load i64, ptr %10, align 8, !tbaa !42
  %37 = load i64, ptr %12, align 8, !tbaa !42
  %38 = add i64 %36, %37
  %39 = icmp ule i64 %38, 524288
  br i1 %39, label %40, label %96

40:                                               ; preds = %35
  %41 = load ptr, ptr %3, align 8, !tbaa !13
  %42 = load i64, ptr %12, align 8, !tbaa !42
  %43 = call ptr @__archive_read_ahead(ptr noundef %41, i64 noundef %42, ptr noundef %11)
  store ptr %43, ptr %7, align 8, !tbaa !40
  %44 = load ptr, ptr %7, align 8, !tbaa !40
  %45 = icmp eq ptr %44, null
  br i1 %45, label %46, label %53

46:                                               ; preds = %40
  %47 = load i64, ptr %12, align 8, !tbaa !42
  %48 = ashr i64 %47, 1
  store i64 %48, ptr %12, align 8, !tbaa !42
  %49 = load i64, ptr %12, align 8, !tbaa !42
  %50 = icmp slt i64 %49, 64
  br i1 %50, label %51, label %52

51:                                               ; preds = %46
  store i32 4, ptr %5, align 4
  br label %97

52:                                               ; preds = %46
  br label %35, !llvm.loop !83

53:                                               ; preds = %40
  %54 = load i64, ptr %11, align 8, !tbaa !42
  %55 = icmp slt i64 %54, 64
  br i1 %55, label %56, label %57

56:                                               ; preds = %53
  store i32 4, ptr %5, align 4
  br label %97

57:                                               ; preds = %53
  %58 = load ptr, ptr %7, align 8, !tbaa !40
  store ptr %58, ptr %4, align 8, !tbaa !33
  %59 = load ptr, ptr %4, align 8, !tbaa !33
  %60 = load i64, ptr %11, align 8, !tbaa !42
  %61 = getelementptr inbounds i8, ptr %59, i64 %60
  store ptr %61, ptr %8, align 8, !tbaa !33
  br label %62

62:                                               ; preds = %81, %57
  %63 = load ptr, ptr %4, align 8, !tbaa !33
  %64 = getelementptr inbounds i8, ptr %63, i64 8
  %65 = load ptr, ptr %8, align 8, !tbaa !33
  %66 = icmp ult ptr %64, %65
  br i1 %66, label %67, label %84

67:                                               ; preds = %62
  %68 = load ptr, ptr %4, align 8, !tbaa !33
  %69 = getelementptr inbounds [8 x i8], ptr %6, i64 0, i64 0
  %70 = call i32 @memcmp(ptr noundef %68, ptr noundef %69, i64 noundef 8) #13
  %71 = icmp eq i32 %70, 0
  br i1 %71, label %72, label %81

72:                                               ; preds = %67
  %73 = load ptr, ptr %4, align 8, !tbaa !33
  %74 = load ptr, ptr %7, align 8, !tbaa !40
  %75 = ptrtoint ptr %73 to i64
  %76 = ptrtoint ptr %74 to i64
  %77 = sub i64 %75, %76
  store i64 %77, ptr %9, align 8, !tbaa !42
  %78 = load ptr, ptr %3, align 8, !tbaa !13
  %79 = load i64, ptr %9, align 8, !tbaa !42
  %80 = call i64 @__archive_read_consume(ptr noundef %78, i64 noundef %79)
  store i32 0, ptr %2, align 4
  store i32 1, ptr %5, align 4
  br label %97

81:                                               ; preds = %67
  %82 = load ptr, ptr %4, align 8, !tbaa !33
  %83 = getelementptr inbounds i8, ptr %82, i64 16
  store ptr %83, ptr %4, align 8, !tbaa !33
  br label %62, !llvm.loop !84

84:                                               ; preds = %62
  %85 = load ptr, ptr %4, align 8, !tbaa !33
  %86 = load ptr, ptr %7, align 8, !tbaa !40
  %87 = ptrtoint ptr %85 to i64
  %88 = ptrtoint ptr %86 to i64
  %89 = sub i64 %87, %88
  store i64 %89, ptr %9, align 8, !tbaa !42
  %90 = load ptr, ptr %3, align 8, !tbaa !13
  %91 = load i64, ptr %9, align 8, !tbaa !42
  %92 = call i64 @__archive_read_consume(ptr noundef %90, i64 noundef %91)
  %93 = load i64, ptr %9, align 8, !tbaa !42
  %94 = load i64, ptr %10, align 8, !tbaa !42
  %95 = add i64 %94, %93
  store i64 %95, ptr %10, align 8, !tbaa !42
  br label %35, !llvm.loop !83

96:                                               ; preds = %35
  store i32 0, ptr %5, align 4
  br label %97

97:                                               ; preds = %56, %51, %96, %72
  call void @llvm.lifetime.end.p0(i64 8, ptr %12) #11
  call void @llvm.lifetime.end.p0(i64 8, ptr %11) #11
  call void @llvm.lifetime.end.p0(i64 8, ptr %10) #11
  call void @llvm.lifetime.end.p0(i64 8, ptr %9) #11
  call void @llvm.lifetime.end.p0(i64 8, ptr %8) #11
  call void @llvm.lifetime.end.p0(i64 8, ptr %7) #11
  call void @llvm.lifetime.end.p0(i64 8, ptr %6) #11
  %98 = load i32, ptr %5, align 4
  switch i32 %98, label %104 [
    i32 0, label %99
    i32 4, label %101
  ]

99:                                               ; preds = %97
  br label %100

100:                                              ; preds = %99, %29
  store i32 0, ptr %2, align 4
  store i32 1, ptr %5, align 4
  br label %104

101:                                              ; preds = %97
  %102 = load ptr, ptr %3, align 8, !tbaa !13
  %103 = getelementptr inbounds nuw %struct.archive_read, ptr %102, i32 0, i32 0
  call void (ptr, i32, ptr, ...) @archive_set_error(ptr noundef %103, i32 noundef 84, ptr noundef @.str.6)
  store i32 -30, ptr %2, align 4
  store i32 1, ptr %5, align 4
  br label %104

104:                                              ; preds = %101, %100, %97, %16
  call void @llvm.lifetime.end.p0(i64 8, ptr %4) #11
  %105 = load i32, ptr %2, align 4
  ret i32 %105
}

; Function Attrs: nounwind uwtable
define internal void @init_header(ptr noundef %0) #0 {
  %2 = alloca ptr, align 8
  store ptr %0, ptr %2, align 8, !tbaa !13
  %3 = load ptr, ptr %2, align 8, !tbaa !13
  %4 = getelementptr inbounds nuw %struct.archive_read, ptr %3, i32 0, i32 0
  %5 = getelementptr inbounds nuw %struct.archive, ptr %4, i32 0, i32 3
  store i32 1048576, ptr %5, align 8, !tbaa !81
  %6 = load ptr, ptr %2, align 8, !tbaa !13
  %7 = getelementptr inbounds nuw %struct.archive_read, ptr %6, i32 0, i32 0
  %8 = getelementptr inbounds nuw %struct.archive, ptr %7, i32 0, i32 4
  store ptr @.str.5, ptr %8, align 8, !tbaa !82
  ret void
}

; Function Attrs: inlinehint nounwind uwtable
define internal ptr @get_context(ptr noundef %0) #2 {
  %2 = alloca ptr, align 8
  store ptr %0, ptr %2, align 8, !tbaa !13
  %3 = load ptr, ptr %2, align 8, !tbaa !13
  %4 = getelementptr inbounds nuw %struct.archive_read, ptr %3, i32 0, i32 13
  %5 = load ptr, ptr %4, align 8, !tbaa !52
  %6 = getelementptr inbounds nuw %struct.archive_format_descriptor, ptr %5, i32 0, i32 0
  %7 = load ptr, ptr %6, align 8, !tbaa !66
  ret ptr %7
}

; Function Attrs: nounwind uwtable
define internal i32 @rar5_read_header(ptr noundef %0, ptr noundef %1) #0 {
  %3 = alloca i32, align 4
  %4 = alloca ptr, align 8
  %5 = alloca ptr, align 8
  %6 = alloca ptr, align 8
  %7 = alloca i32, align 4
  %8 = alloca i32, align 4
  store ptr %0, ptr %4, align 8, !tbaa !13
  store ptr %1, ptr %5, align 8, !tbaa !34
  call void @llvm.lifetime.start.p0(i64 8, ptr %6) #11
  %9 = load ptr, ptr %4, align 8, !tbaa !13
  %10 = call ptr @get_context(ptr noundef %9)
  store ptr %10, ptr %6, align 8, !tbaa !11
  call void @llvm.lifetime.start.p0(i64 4, ptr %7) #11
  %11 = load ptr, ptr %6, align 8, !tbaa !11
  %12 = getelementptr inbounds nuw %struct.rar5, ptr %11, i32 0, i32 13
  %13 = load i32, ptr %12, align 4, !tbaa !17
  %14 = icmp eq i32 %13, -1
  br i1 %14, label %15, label %18

15:                                               ; preds = %2
  %16 = load ptr, ptr %6, align 8, !tbaa !11
  %17 = getelementptr inbounds nuw %struct.rar5, ptr %16, i32 0, i32 13
  store i32 0, ptr %17, align 4, !tbaa !17
  br label %18

18:                                               ; preds = %15, %2
  %19 = load ptr, ptr %6, align 8, !tbaa !11
  %20 = getelementptr inbounds nuw %struct.rar5, ptr %19, i32 0, i32 0
  %21 = load i32, ptr %20, align 8, !tbaa !36
  %22 = icmp eq i32 %21, 0
  br i1 %22, label %23, label %33

23:                                               ; preds = %18
  %24 = load ptr, ptr %4, align 8, !tbaa !13
  call void @init_header(ptr noundef %24)
  %25 = load ptr, ptr %4, align 8, !tbaa !13
  %26 = call i32 @try_skip_sfx(ptr noundef %25)
  store i32 %26, ptr %7, align 4, !tbaa !9
  %27 = icmp slt i32 %26, -20
  br i1 %27, label %28, label %30

28:                                               ; preds = %23
  %29 = load i32, ptr %7, align 4, !tbaa !9
  store i32 %29, ptr %3, align 4
  store i32 1, ptr %8, align 4
  br label %71

30:                                               ; preds = %23
  %31 = load ptr, ptr %6, align 8, !tbaa !11
  %32 = getelementptr inbounds nuw %struct.rar5, ptr %31, i32 0, i32 0
  store i32 1, ptr %32, align 8, !tbaa !36
  br label %33

33:                                               ; preds = %30, %18
  %34 = load ptr, ptr %6, align 8, !tbaa !11
  %35 = getelementptr inbounds nuw %struct.rar5, ptr %34, i32 0, i32 1
  %36 = load i32, ptr %35, align 4, !tbaa !37
  %37 = icmp eq i32 %36, 0
  br i1 %37, label %38, label %46

38:                                               ; preds = %33
  %39 = load ptr, ptr %4, align 8, !tbaa !13
  %40 = call i32 @consume(ptr noundef %39, i64 noundef 8)
  %41 = icmp ne i32 0, %40
  br i1 %41, label %42, label %43

42:                                               ; preds = %38
  store i32 1, ptr %3, align 4
  store i32 1, ptr %8, align 4
  br label %71

43:                                               ; preds = %38
  %44 = load ptr, ptr %6, align 8, !tbaa !11
  %45 = getelementptr inbounds nuw %struct.rar5, ptr %44, i32 0, i32 1
  store i32 1, ptr %45, align 4, !tbaa !37
  br label %46

46:                                               ; preds = %43, %33
  br label %47

47:                                               ; preds = %67, %46
  %48 = load ptr, ptr %4, align 8, !tbaa !13
  %49 = load ptr, ptr %5, align 8, !tbaa !34
  %50 = call i32 @process_base_block(ptr noundef %48, ptr noundef %49)
  store i32 %50, ptr %7, align 4, !tbaa !9
  br label %51

51:                                               ; preds = %47
  %52 = load i32, ptr %7, align 4, !tbaa !9
  %53 = icmp eq i32 %52, -10
  br i1 %53, label %67, label %54

54:                                               ; preds = %51
  %55 = load ptr, ptr %6, align 8, !tbaa !11
  %56 = getelementptr inbounds nuw %struct.rar5, ptr %55, i32 0, i32 7
  %57 = load i8, ptr %56, align 4
  %58 = lshr i8 %57, 2
  %59 = and i8 %58, 1
  %60 = zext i8 %59 to i32
  %61 = icmp sgt i32 %60, 0
  br i1 %61, label %62, label %65

62:                                               ; preds = %54
  %63 = load i32, ptr %7, align 4, !tbaa !9
  %64 = icmp eq i32 %63, 0
  br label %65

65:                                               ; preds = %62, %54
  %66 = phi i1 [ false, %54 ], [ %64, %62 ]
  br label %67

67:                                               ; preds = %65, %51
  %68 = phi i1 [ true, %51 ], [ %66, %65 ]
  br i1 %68, label %47, label %69, !llvm.loop !38

69:                                               ; preds = %67
  %70 = load i32, ptr %7, align 4, !tbaa !9
  store i32 %70, ptr %3, align 4
  store i32 1, ptr %8, align 4
  br label %71

71:                                               ; preds = %69, %42, %28
  call void @llvm.lifetime.end.p0(i64 4, ptr %7) #11
  call void @llvm.lifetime.end.p0(i64 8, ptr %6) #11
  %72 = load i32, ptr %3, align 4
  ret i32 %72
}