; Function Attrs: nounwind uwtable
define internal range(i32 -9, -10) i32 @rar5_read_header(ptr noundef %0, ptr noundef %1) #0 {
  %3 = alloca [8 x i8], align 1
  %4 = alloca i64, align 8
  %5 = getelementptr i8, ptr %0, i64 2072
  %.val = load ptr, ptr %5, align 8, !tbaa !31
  %.val.val = load ptr, ptr %.val, align 8, !tbaa !46
  %6 = getelementptr inbounds nuw i8, ptr %.val.val, i64 21292
  %7 = load i32, ptr %6, align 4, !tbaa !12
  %8 = icmp eq i32 %7, -1
  br i1 %8, label %9, label %10

9:                                                ; preds = %2
  store i32 0, ptr %6, align 4, !tbaa !12
  br label %10

10:                                               ; preds = %9, %2
  %11 = load i32, ptr %.val.val, align 8, !tbaa !48
  %12 = icmp eq i32 %11, 0
  br i1 %12, label %13, label %62

13:                                               ; preds = %10
  %14 = getelementptr inbounds nuw i8, ptr %0, i64 16
  store i32 1048576, ptr %14, align 8, !tbaa !49
  %15 = getelementptr inbounds nuw i8, ptr %0, i64 24
  store ptr @.str.5, ptr %15, align 8, !tbaa !50
  %16 = tail call ptr @__archive_read_ahead(ptr noundef nonnull %0, i64 noundef 7, ptr noundef null) #15
  %17 = icmp eq ptr %16, null
  br i1 %17, label %61, label %18

18:                                               ; preds = %13
  %19 = load i8, ptr %16, align 1, !tbaa !26
  %20 = icmp eq i8 %19, 77
  br i1 %20, label %21, label %25

21:                                               ; preds = %18
  %22 = getelementptr inbounds nuw i8, ptr %16, i64 1
  %23 = load i8, ptr %22, align 1, !tbaa !26
  %24 = icmp eq i8 %23, 90
  br i1 %24, label %27, label %25

25:                                               ; preds = %21, %18
  %bcmp.i = tail call i32 @bcmp(ptr noundef nonnull dereferenceable(4) %16, ptr noundef nonnull dereferenceable(4) @.str.4, i64 4)
  %26 = icmp eq i32 %bcmp.i, 0
  br i1 %26, label %27, label %61

27:                                               ; preds = %25, %21
  call void @llvm.lifetime.start.p0(i64 8, ptr nonnull %3) #15
  call void @llvm.lifetime.start.p0(i64 8, ptr nonnull %4) #15
  br label %28

28:                                               ; preds = %28, %27
  %.04.i.i = phi i64 [ 0, %27 ], [ %33, %28 ]
  %29 = getelementptr inbounds nuw [8 x i8], ptr @rar5_signature_xor, i64 0, i64 %.04.i.i
  %30 = load i8, ptr %29, align 1, !tbaa !26
  %31 = xor i8 %30, -95
  %32 = getelementptr inbounds nuw i8, ptr %3, i64 %.04.i.i
  store i8 %31, ptr %32, align 1, !tbaa !26
  %33 = add nuw nsw i64 %.04.i.i, 1
  %exitcond.not.i.i = icmp eq i64 %33, 8
  br i1 %exitcond.not.i.i, label %rar5_signature.exit.outer.i, label %28, !llvm.loop !27

rar5_signature.exit.outer.i:                      ; preds = %28, %._crit_edge.i
  %.029.ph.i = phi i64 [ %60, %._crit_edge.i ], [ 0, %28 ]
  %.0.ph.i = phi i64 [ %.0.i, %._crit_edge.i ], [ 4096, %28 ]
  br label %rar5_signature.exit.i

rar5_signature.exit.i:                            ; preds = %39, %rar5_signature.exit.outer.i
  %.0.i = phi i64 [ %40, %39 ], [ %.0.ph.i, %rar5_signature.exit.outer.i ]
  %34 = add i64 %.0.i, %.029.ph.i
  %35 = icmp ult i64 %34, 524289
  br i1 %35, label %36, label %.loopexit.i

36:                                               ; preds = %rar5_signature.exit.i
  %37 = call ptr @__archive_read_ahead(ptr noundef nonnull %0, i64 noundef %.0.i, ptr noundef nonnull %4) #15
  %38 = icmp eq ptr %37, null
  br i1 %38, label %39, label %42

39:                                               ; preds = %36
  %40 = lshr i64 %.0.i, 1
  %41 = icmp samesign ult i64 %.0.i, 128
  br i1 %41, label %try_skip_sfx.exit, label %rar5_signature.exit.i, !llvm.loop !51

42:                                               ; preds = %36
  %43 = load i64, ptr %4, align 8, !tbaa !29
  %44 = icmp slt i64 %43, 64
  br i1 %44, label %try_skip_sfx.exit, label %.lr.ph.preheader.i

.lr.ph.preheader.i:                               ; preds = %42
  %45 = getelementptr inbounds nuw i8, ptr %37, i64 %43
  br label %.lr.ph.i

.lr.ph.i:                                         ; preds = %52, %.lr.ph.preheader.i
  %.03147.i = phi ptr [ %53, %52 ], [ %37, %.lr.ph.preheader.i ]
  %bcmp37.i = call i32 @bcmp(ptr noundef nonnull dereferenceable(8) %.03147.i, ptr noundef nonnull dereferenceable(8) %3, i64 8)
  %46 = icmp eq i32 %bcmp37.i, 0
  br i1 %46, label %47, label %52

47:                                               ; preds = %.lr.ph.i
  %48 = ptrtoint ptr %.03147.i to i64
  %49 = ptrtoint ptr %37 to i64
  %50 = sub i64 %48, %49
  %51 = call i64 @__archive_read_consume(ptr noundef nonnull %0, i64 noundef %50) #15
  br label %.loopexit.i

52:                                               ; preds = %.lr.ph.i
  %53 = getelementptr inbounds nuw i8, ptr %.03147.i, i64 16
  %54 = getelementptr inbounds nuw i8, ptr %.03147.i, i64 24
  %55 = icmp ult ptr %54, %45
  br i1 %55, label %.lr.ph.i, label %._crit_edge.i, !llvm.loop !52

._crit_edge.i:                                    ; preds = %52
  %56 = ptrtoint ptr %53 to i64
  %57 = ptrtoint ptr %37 to i64
  %58 = sub i64 %56, %57
  %59 = call i64 @__archive_read_consume(ptr noundef nonnull %0, i64 noundef %58) #15
  %60 = add i64 %58, %.029.ph.i
  br label %rar5_signature.exit.outer.i, !llvm.loop !51

.loopexit.i:                                      ; preds = %rar5_signature.exit.i, %47
  call void @llvm.lifetime.end.p0(i64 8, ptr nonnull %4) #15
  call void @llvm.lifetime.end.p0(i64 8, ptr nonnull %3) #15
  br label %61

try_skip_sfx.exit:                                ; preds = %42, %39
  call void @llvm.lifetime.end.p0(i64 8, ptr nonnull %4) #15
  call void @llvm.lifetime.end.p0(i64 8, ptr nonnull %3) #15
  call void (ptr, i32, ptr, ...) @archive_set_error(ptr noundef nonnull %0, i32 noundef 84, ptr noundef nonnull @.str.6) #15
  br label %.loopexit

61:                                               ; preds = %13, %.loopexit.i, %25
  store i32 1, ptr %.val.val, align 8, !tbaa !48
  br label %62

62:                                               ; preds = %61, %10
  %63 = getelementptr inbounds nuw i8, ptr %.val.val, i64 4
  %64 = load i32, ptr %63, align 4, !tbaa !53
  %65 = icmp eq i32 %64, 0
  br i1 %65, label %66, label %70

66:                                               ; preds = %62
  %67 = call i64 @__archive_read_consume(ptr noundef %0, i64 noundef 8) #15
  %68 = icmp eq i64 %67, 8
  br i1 %68, label %69, label %.loopexit

69:                                               ; preds = %66
  store i32 1, ptr %63, align 4, !tbaa !53
  br label %70

70:                                               ; preds = %69, %62
  %71 = getelementptr inbounds nuw i8, ptr %.val.val, i64 44
  br label %.critedge

.critedge:                                        ; preds = %.critedge.backedge, %70
  %72 = call fastcc i32 @process_base_block(ptr noundef %0, ptr noundef %1)
  %73 = icmp eq i32 %72, -10
  br i1 %73, label %.critedge.backedge, label %74

74:                                               ; preds = %.critedge
  %75 = load i8, ptr %71, align 4
  %76 = and i8 %75, 4
  %77 = icmp ne i8 %76, 0
  %78 = icmp eq i32 %72, 0
  %79 = and i1 %78, %77
  br i1 %79, label %.critedge.backedge, label %.loopexit

.critedge.backedge:                               ; preds = %74, %.critedge
  br label %.critedge, !llvm.loop !54

.loopexit:                                        ; preds = %74, %try_skip_sfx.exit, %66
  %.0 = phi i32 [ -30, %try_skip_sfx.exit ], [ 1, %66 ], [ %72, %74 ]
  ret i32 %.0
}